; ModuleID = '7/671.c'
source_filename = "7/671.c"
target datalayout = "e-m:e-p270:32:32-p271:32:32-p272:64:64-i64:64-f80:128-n8:16:32:64-S128"
target triple = "x86_64-pc-linux-gnu"

@.str = private unnamed_addr constant [7 x i8] c"%s%s%s\00", align 1
@.str.1 = private unnamed_addr constant [3 x i8] c"%s\00", align 1
@.str.2 = private unnamed_addr constant [3 x i8] c"%c\00", align 1

; Function Attrs: noinline nounwind uwtable
define dso_local i32 @main() #0 {
  %1 = alloca i32, align 4
  %2 = alloca [256 x i8], align 16
  %3 = alloca [256 x i8], align 16
  %4 = alloca [100 x [50 x i8]], align 16
  %5 = alloca [256 x i8], align 16
  %6 = alloca [256 x i8], align 16
  %7 = alloca i32, align 4
  %8 = alloca i32, align 4
  %9 = alloca i32, align 4
  %10 = alloca i32, align 4
  %11 = alloca i32, align 4
  %12 = alloca i32, align 4
  %13 = alloca i32, align 4
  store i32 0, i32* %1, align 4
  store i32 -1, i32* %13, align 4
  %14 = getelementptr inbounds [256 x i8], [256 x i8]* %2, i64 0, i64 0
  %15 = getelementptr inbounds [256 x i8], [256 x i8]* %3, i64 0, i64 0
  %16 = getelementptr inbounds [256 x i8], [256 x i8]* %6, i64 0, i64 0
  %17 = call i32 (i8*, ...) @__isoc99_scanf(i8* getelementptr inbounds ([7 x i8], [7 x i8]* @.str, i64 0, i64 0), i8* %14, i8* %15, i8* %16)
  %18 = getelementptr inbounds [256 x i8], [256 x i8]* %2, i64 0, i64 0
  %19 = call i64 @strlen(i8* %18) #4
  %20 = trunc i64 %19 to i32
  store i32 %20, i32* %8, align 4
  %21 = getelementptr inbounds [256 x i8], [256 x i8]* %3, i64 0, i64 0
  %22 = call i64 @strlen(i8* %21) #4
  %23 = trunc i64 %22 to i32
  store i32 %23, i32* %9, align 4
  %24 = load i32, i32* %8, align 4
  %25 = load i32, i32* %9, align 4
  %26 = sub nsw i32 %24, %25
  %27 = add nsw i32 %26, 1
  store i32 %27, i32* %12, align 4
  store i32 0, i32* %10, align 4
  br label %28

28:                                               ; preds = %58, %0
  %29 = load i32, i32* %10, align 4
  %30 = load i32, i32* %12, align 4
  %31 = icmp slt i32 %29, %30
  br i1 %31, label %32, label %61

32:                                               ; preds = %28
  %33 = load i32, i32* %10, align 4
  store i32 %33, i32* %11, align 4
  store i32 0, i32* %7, align 4
  br label %34

34:                                               ; preds = %46, %32
  %35 = load i32, i32* %7, align 4
  %36 = load i32, i32* %9, align 4
  %37 = icmp slt i32 %35, %36
  br i1 %37, label %38, label %51

38:                                               ; preds = %34
  %39 = load i32, i32* %11, align 4
  %40 = sext i32 %39 to i64
  %41 = getelementptr inbounds [256 x i8], [256 x i8]* %2, i64 0, i64 %40
  %42 = load i8, i8* %41, align 1
  %43 = load i32, i32* %7, align 4
  %44 = sext i32 %43 to i64
  %45 = getelementptr inbounds [256 x i8], [256 x i8]* %5, i64 0, i64 %44
  store i8 %42, i8* %45, align 1
  br label %46

46:                                               ; preds = %38
  %47 = load i32, i32* %7, align 4
  %48 = add nsw i32 %47, 1
  store i32 %48, i32* %7, align 4
  %49 = load i32, i32* %11, align 4
  %50 = add nsw i32 %49, 1
  store i32 %50, i32* %11, align 4
  br label %34

51:                                               ; preds = %34
  %52 = load i32, i32* %10, align 4
  %53 = sext i32 %52 to i64
  %54 = getelementptr inbounds [100 x [50 x i8]], [100 x [50 x i8]]* %4, i64 0, i64 %53
  %55 = getelementptr inbounds [50 x i8], [50 x i8]* %54, i64 0, i64 0
  %56 = getelementptr inbounds [256 x i8], [256 x i8]* %5, i64 0, i64 0
  %57 = call i8* @strcpy(i8* %55, i8* %56) #5
  br label %58

58:                                               ; preds = %51
  %59 = load i32, i32* %10, align 4
  %60 = add nsw i32 %59, 1
  store i32 %60, i32* %10, align 4
  br label %28

61:                                               ; preds = %28
  store i32 0, i32* %7, align 4
  br label %62

62:                                               ; preds = %77, %61
  %63 = load i32, i32* %7, align 4
  %64 = load i32, i32* %12, align 4
  %65 = icmp slt i32 %63, %64
  br i1 %65, label %66, label %80

66:                                               ; preds = %62
  %67 = getelementptr inbounds [256 x i8], [256 x i8]* %3, i64 0, i64 0
  %68 = load i32, i32* %7, align 4
  %69 = sext i32 %68 to i64
  %70 = getelementptr inbounds [100 x [50 x i8]], [100 x [50 x i8]]* %4, i64 0, i64 %69
  %71 = getelementptr inbounds [50 x i8], [50 x i8]* %70, i64 0, i64 0
  %72 = call i32 @strcmp(i8* %67, i8* %71) #4
  %73 = icmp eq i32 %72, 0
  br i1 %73, label %74, label %76

74:                                               ; preds = %66
  %75 = load i32, i32* %7, align 4
  store i32 %75, i32* %13, align 4
  br label %80

76:                                               ; preds = %66
  br label %77

77:                                               ; preds = %76
  %78 = load i32, i32* %7, align 4
  %79 = add nsw i32 %78, 1
  store i32 %79, i32* %7, align 4
  br label %62

80:                                               ; preds = %74, %62
  %81 = load i32, i32* %13, align 4
  %82 = icmp eq i32 %81, 0
  br i1 %82, label %83, label %102

83:                                               ; preds = %80
  %84 = getelementptr inbounds [256 x i8], [256 x i8]* %6, i64 0, i64 0
  %85 = call i32 (i8*, ...) @printf(i8* getelementptr inbounds ([3 x i8], [3 x i8]* @.str.1, i64 0, i64 0), i8* %84)
  %86 = load i32, i32* %9, align 4
  store i32 %86, i32* %7, align 4
  br label %87

87:                                               ; preds = %98, %83
  %88 = load i32, i32* %7, align 4
  %89 = load i32, i32* %8, align 4
  %90 = icmp slt i32 %88, %89
  br i1 %90, label %91, label %101

91:                                               ; preds = %87
  %92 = load i32, i32* %7, align 4
  %93 = sext i32 %92 to i64
  %94 = getelementptr inbounds [256 x i8], [256 x i8]* %2, i64 0, i64 %93
  %95 = load i8, i8* %94, align 1
  %96 = sext i8 %95 to i32
  %97 = call i32 (i8*, ...) @printf(i8* getelementptr inbounds ([3 x i8], [3 x i8]* @.str.2, i64 0, i64 0), i32 %96)
  br label %98

98:                                               ; preds = %91
  %99 = load i32, i32* %7, align 4
  %100 = add nsw i32 %99, 1
  store i32 %100, i32* %7, align 4
  br label %87

101:                                              ; preds = %87
  br label %102

102:                                              ; preds = %101, %80
  %103 = load i32, i32* %13, align 4
  %104 = load i32, i32* %8, align 4
  %105 = load i32, i32* %9, align 4
  %106 = sub nsw i32 %104, %105
  %107 = icmp eq i32 %103, %106
  br i1 %107, label %108, label %126

108:                                              ; preds = %102
  store i32 0, i32* %7, align 4
  br label %109

109:                                              ; preds = %120, %108
  %110 = load i32, i32* %7, align 4
  %111 = load i32, i32* %13, align 4
  %112 = icmp slt i32 %110, %111
  br i1 %112, label %113, label %123

113:                                              ; preds = %109
  %114 = load i32, i32* %7, align 4
  %115 = sext i32 %114 to i64
  %116 = getelementptr inbounds [256 x i8], [256 x i8]* %2, i64 0, i64 %115
  %117 = load i8, i8* %116, align 1
  %118 = sext i8 %117 to i32
  %119 = call i32 (i8*, ...) @printf(i8* getelementptr inbounds ([3 x i8], [3 x i8]* @.str.2, i64 0, i64 0), i32 %118)
  br label %120

120:                                              ; preds = %113
  %121 = load i32, i32* %7, align 4
  %122 = add nsw i32 %121, 1
  store i32 %122, i32* %7, align 4
  br label %109

123:                                              ; preds = %109
  %124 = getelementptr inbounds [256 x i8], [256 x i8]* %6, i64 0, i64 0
  %125 = call i32 (i8*, ...) @printf(i8* getelementptr inbounds ([3 x i8], [3 x i8]* @.str.1, i64 0, i64 0), i8* %124)
  br label %126

126:                                              ; preds = %123, %102
  %127 = load i32, i32* %13, align 4
  %128 = icmp sgt i32 %127, 0
  br i1 %128, label %129, label %171

129:                                              ; preds = %126
  %130 = load i32, i32* %13, align 4
  %131 = load i32, i32* %8, align 4
  %132 = load i32, i32* %9, align 4
  %133 = sub nsw i32 %131, %132
  %134 = icmp slt i32 %130, %133
  br i1 %134, label %135, label %171

135:                                              ; preds = %129
  store i32 0, i32* %7, align 4
  br label %136

136:                                              ; preds = %147, %135
  %137 = load i32, i32* %7, align 4
  %138 = load i32, i32* %13, align 4
  %139 = icmp slt i32 %137, %138
  br i1 %139, label %140, label %150

140:                                              ; preds = %136
  %141 = load i32, i32* %7, align 4
  %142 = sext i32 %141 to i64
  %143 = getelementptr inbounds [256 x i8], [256 x i8]* %2, i64 0, i64 %142
  %144 = load i8, i8* %143, align 1
  %145 = sext i8 %144 to i32
  %146 = call i32 (i8*, ...) @printf(i8* getelementptr inbounds ([3 x i8], [3 x i8]* @.str.2, i64 0, i64 0), i32 %145)
  br label %147

147:                                              ; preds = %140
  %148 = load i32, i32* %7, align 4
  %149 = add nsw i32 %148, 1
  store i32 %149, i32* %7, align 4
  br label %136

150:                                              ; preds = %136
  %151 = getelementptr inbounds [256 x i8], [256 x i8]* %6, i64 0, i64 0
  %152 = call i32 (i8*, ...) @printf(i8* getelementptr inbounds ([3 x i8], [3 x i8]* @.str.1, i64 0, i64 0), i8* %151)
  %153 = load i32, i32* %13, align 4
  %154 = load i32, i32* %9, align 4
  %155 = add nsw i32 %153, %154
  store i32 %155, i32* %7, align 4
  br label %156

156:                                              ; preds = %167, %150
  %157 = load i32, i32* %7, align 4
  %158 = load i32, i32* %8, align 4
  %159 = icmp slt i32 %157, %158
  br i1 %159, label %160, label %170

160:                                              ; preds = %156
  %161 = load i32, i32* %7, align 4
  %162 = sext i32 %161 to i64
  %163 = getelementptr inbounds [256 x i8], [256 x i8]* %2, i64 0, i64 %162
  %164 = load i8, i8* %163, align 1
  %165 = sext i8 %164 to i32
  %166 = call i32 (i8*, ...) @printf(i8* getelementptr inbounds ([3 x i8], [3 x i8]* @.str.2, i64 0, i64 0), i32 %165)
  br label %167

167:                                              ; preds = %160
  %168 = load i32, i32* %7, align 4
  %169 = add nsw i32 %168, 1
  store i32 %169, i32* %7, align 4
  br label %156

170:                                              ; preds = %156
  br label %171

171:                                              ; preds = %170, %129, %126
  %172 = load i32, i32* %13, align 4
  %173 = icmp eq i32 %172, -1
  br i1 %173, label %174, label %177

174:                                              ; preds = %171
  %175 = getelementptr inbounds [256 x i8], [256 x i8]* %2, i64 0, i64 0
  %176 = call i32 (i8*, ...) @printf(i8* getelementptr inbounds ([3 x i8], [3 x i8]* @.str.1, i64 0, i64 0), i8* %175)
  br label %177

177:                                              ; preds = %174, %171
  ret i32 0
}

declare dso_local i32 @__isoc99_scanf(i8*, ...) #1

; Function Attrs: nounwind readonly
declare dso_local i64 @strlen(i8*) #2

; Function Attrs: nounwind
declare dso_local i8* @strcpy(i8*, i8*) #3

; Function Attrs: nounwind readonly
declare dso_local i32 @strcmp(i8*, i8*) #2

declare dso_local i32 @printf(i8*, ...) #1


!llvm.module.flags = !{!0}
!llvm.ident = !{!1}

!0 = !{i32 1, !"wchar_size", i32 4}
!1 = !{!"clang version 10.0.0-4ubuntu1 "}
